target datalayout = "e-m:e-p270:32:32-p271:32:32-p272:64:64-i64:64-i128:128-f80:128-n8:16:32:64-S128"
target triple = "x86_64-pc-linux-gnu"

%struct.If_DsdMan_t_ = type { ptr, i32, i32, i32, i32, ptr, ptr, %struct.Vec_Ptr_t_, %struct.Vec_Int_t_, %struct.Vec_Int_t_, ptr, ptr, ptr, [16 x ptr], [16 x ptr], [16 x ptr], [16 x ptr], i32, i32, ptr, ptr, ptr, ptr, ptr, i32, i32, i32, i32, i64, i64, i64, i64, i64 }
%struct.Vec_Ptr_t_ = type { i32, i32, ptr }
%struct.Vec_Int_t_ = type { i32, i32, ptr }
%struct.If_DsdObj_t_ = type { i32, i32, [0 x i32] }

; Function Attrs: inlinehint nounwind uwtable
define internal void @Vec_IntGrow(ptr noundef %0, i32 noundef %1) #1 {
  %3 = alloca ptr, align 8
  %4 = alloca i32, align 4
  store ptr %0, ptr %3, align 8, !tbaa !47
  store i32 %1, ptr %4, align 4, !tbaa !27
  %5 = load ptr, ptr %3, align 8, !tbaa !47
  %6 = getelementptr inbounds nuw %struct.Vec_Int_t_, ptr %5, i32 0, i32 0
  %7 = load i32, ptr %6, align 8, !tbaa !49
  %8 = load i32, ptr %4, align 4, !tbaa !27
  %9 = icmp sge i32 %7, %8
  br i1 %9, label %10, label %11

10:                                               ; preds = %2
  br label %36

11:                                               ; preds = %2
  %12 = load ptr, ptr %3, align 8, !tbaa !47
  %13 = getelementptr inbounds nuw %struct.Vec_Int_t_, ptr %12, i32 0, i32 2
  %14 = load ptr, ptr %13, align 8, !tbaa !50
  %15 = icmp ne ptr %14, null
  br i1 %15, label %16, label %24

16:                                               ; preds = %11
  %17 = load ptr, ptr %3, align 8, !tbaa !47
  %18 = getelementptr inbounds nuw %struct.Vec_Int_t_, ptr %17, i32 0, i32 2
  %19 = load ptr, ptr %18, align 8, !tbaa !50
  %20 = load i32, ptr %4, align 4, !tbaa !27
  %21 = sext i32 %20 to i64
  %22 = mul i64 4, %21
  %23 = call ptr @realloc(ptr noundef %19, i64 noundef %22) #19
  br label %29

24:                                               ; preds = %11
  %25 = load i32, ptr %4, align 4, !tbaa !27
  %26 = sext i32 %25 to i64
  %27 = mul i64 4, %26
  %28 = call noalias ptr @malloc(i64 noundef %27) #18
  br label %29

29:                                               ; preds = %24, %16
  %30 = phi ptr [ %23, %16 ], [ %28, %24 ]
  %31 = load ptr, ptr %3, align 8, !tbaa !47
  %32 = getelementptr inbounds nuw %struct.Vec_Int_t_, ptr %31, i32 0, i32 2
  store ptr %30, ptr %32, align 8, !tbaa !50
  %33 = load i32, ptr %4, align 4, !tbaa !27
  %34 = load ptr, ptr %3, align 8, !tbaa !47
  %35 = getelementptr inbounds nuw %struct.Vec_Int_t_, ptr %34, i32 0, i32 0
  store i32 %33, ptr %35, align 8, !tbaa !49
  br label %36

36:                                               ; preds = %29, %10
  ret void
}

; Function Attrs: inlinehint nounwind uwtable
define internal void @Vec_PtrGrow(ptr noundef %0, i32 noundef %1) #1 {
  %3 = alloca ptr, align 8
  %4 = alloca i32, align 4
  store ptr %0, ptr %3, align 8, !tbaa !22
  store i32 %1, ptr %4, align 4, !tbaa !27
  %5 = load ptr, ptr %3, align 8, !tbaa !22
  %6 = getelementptr inbounds nuw %struct.Vec_Ptr_t_, ptr %5, i32 0, i32 0
  %7 = load i32, ptr %6, align 8, !tbaa !45
  %8 = load i32, ptr %4, align 4, !tbaa !27
  %9 = icmp sge i32 %7, %8
  br i1 %9, label %10, label %11

10:                                               ; preds = %2
  br label %36

11:                                               ; preds = %2
  %12 = load ptr, ptr %3, align 8, !tbaa !22
  %13 = getelementptr inbounds nuw %struct.Vec_Ptr_t_, ptr %12, i32 0, i32 2
  %14 = load ptr, ptr %13, align 8, !tbaa !46
  %15 = icmp ne ptr %14, null
  br i1 %15, label %16, label %24

16:                                               ; preds = %11
  %17 = load ptr, ptr %3, align 8, !tbaa !22
  %18 = getelementptr inbounds nuw %struct.Vec_Ptr_t_, ptr %17, i32 0, i32 2
  %19 = load ptr, ptr %18, align 8, !tbaa !46
  %20 = load i32, ptr %4, align 4, !tbaa !27
  %21 = sext i32 %20 to i64
  %22 = mul i64 8, %21
  %23 = call ptr @realloc(ptr noundef %19, i64 noundef %22) #19
  br label %29

24:                                               ; preds = %11
  %25 = load i32, ptr %4, align 4, !tbaa !27
  %26 = sext i32 %25 to i64
  %27 = mul i64 8, %26
  %28 = call noalias ptr @malloc(i64 noundef %27) #18
  br label %29

29:                                               ; preds = %24, %16
  %30 = phi ptr [ %23, %16 ], [ %28, %24 ]
  %31 = load ptr, ptr %3, align 8, !tbaa !22
  %32 = getelementptr inbounds nuw %struct.Vec_Ptr_t_, ptr %31, i32 0, i32 2
  store ptr %30, ptr %32, align 8, !tbaa !46
  %33 = load i32, ptr %4, align 4, !tbaa !27
  %34 = load ptr, ptr %3, align 8, !tbaa !22
  %35 = getelementptr inbounds nuw %struct.Vec_Ptr_t_, ptr %34, i32 0, i32 0
  store i32 %33, ptr %35, align 8, !tbaa !45
  br label %36

36:                                               ; preds = %29, %10
  ret void
}

; Function Attrs: inlinehint nounwind uwtable
define internal void @Vec_IntPush(ptr noundef %0, i32 noundef %1) #1 {
  %3 = alloca ptr, align 8
  %4 = alloca i32, align 4
  store ptr %0, ptr %3, align 8, !tbaa !47
  store i32 %1, ptr %4, align 4, !tbaa !27
  %5 = load ptr, ptr %3, align 8, !tbaa !47
  %6 = getelementptr inbounds nuw %struct.Vec_Int_t_, ptr %5, i32 0, i32 1
  %7 = load i32, ptr %6, align 4, !tbaa !48
  %8 = load ptr, ptr %3, align 8, !tbaa !47
  %9 = getelementptr inbounds nuw %struct.Vec_Int_t_, ptr %8, i32 0, i32 0
  %10 = load i32, ptr %9, align 8, !tbaa !49
  %11 = icmp eq i32 %7, %10
  br i1 %11, label %12, label %26

12:                                               ; preds = %2
  %13 = load ptr, ptr %3, align 8, !tbaa !47
  %14 = getelementptr inbounds nuw %struct.Vec_Int_t_, ptr %13, i32 0, i32 0
  %15 = load i32, ptr %14, align 8, !tbaa !49
  %16 = icmp slt i32 %15, 16
  br i1 %16, label %17, label %19

17:                                               ; preds = %12
  %18 = load ptr, ptr %3, align 8, !tbaa !47
  call void @Vec_IntGrow(ptr noundef %18, i32 noundef 16)
  br label %25

19:                                               ; preds = %12
  %20 = load ptr, ptr %3, align 8, !tbaa !47
  %21 = load ptr, ptr %3, align 8, !tbaa !47
  %22 = getelementptr inbounds nuw %struct.Vec_Int_t_, ptr %21, i32 0, i32 0
  %23 = load i32, ptr %22, align 8, !tbaa !49
  %24 = mul nsw i32 2, %23
  call void @Vec_IntGrow(ptr noundef %20, i32 noundef %24)
  br label %25

25:                                               ; preds = %19, %17
  br label %26

26:                                               ; preds = %25, %2
  %27 = load i32, ptr %4, align 4, !tbaa !27
  %28 = load ptr, ptr %3, align 8, !tbaa !47
  %29 = getelementptr inbounds nuw %struct.Vec_Int_t_, ptr %28, i32 0, i32 2
  %30 = load ptr, ptr %29, align 8, !tbaa !50
  %31 = load ptr, ptr %3, align 8, !tbaa !47
  %32 = getelementptr inbounds nuw %struct.Vec_Int_t_, ptr %31, i32 0, i32 1
  %33 = load i32, ptr %32, align 4, !tbaa !48
  %34 = add nsw i32 %33, 1
  store i32 %34, ptr %32, align 4, !tbaa !48
  %35 = sext i32 %33 to i64
  %36 = getelementptr inbounds i32, ptr %30, i64 %35
  store i32 %27, ptr %36, align 4, !tbaa !27
  ret void
}

; Function Attrs: inlinehint nounwind uwtable
define internal void @Vec_PtrPush(ptr noundef %0, ptr noundef %1) #1 {
  %3 = alloca ptr, align 8
  %4 = alloca ptr, align 8
  store ptr %0, ptr %3, align 8, !tbaa !22
  store ptr %1, ptr %4, align 8, !tbaa !44
  %5 = load ptr, ptr %3, align 8, !tbaa !22
  %6 = getelementptr inbounds nuw %struct.Vec_Ptr_t_, ptr %5, i32 0, i32 1
  %7 = load i32, ptr %6, align 4, !tbaa !24
  %8 = load ptr, ptr %3, align 8, !tbaa !22
  %9 = getelementptr inbounds nuw %struct.Vec_Ptr_t_, ptr %8, i32 0, i32 0
  %10 = load i32, ptr %9, align 8, !tbaa !45
  %11 = icmp eq i32 %7, %10
  br i1 %11, label %12, label %26

12:                                               ; preds = %2
  %13 = load ptr, ptr %3, align 8, !tbaa !22
  %14 = getelementptr inbounds nuw %struct.Vec_Ptr_t_, ptr %13, i32 0, i32 0
  %15 = load i32, ptr %14, align 8, !tbaa !45
  %16 = icmp slt i32 %15, 16
  br i1 %16, label %17, label %19

17:                                               ; preds = %12
  %18 = load ptr, ptr %3, align 8, !tbaa !22
  call void @Vec_PtrGrow(ptr noundef %18, i32 noundef 16)
  br label %25

19:                                               ; preds = %12
  %20 = load ptr, ptr %3, align 8, !tbaa !22
  %21 = load ptr, ptr %3, align 8, !tbaa !22
  %22 = getelementptr inbounds nuw %struct.Vec_Ptr_t_, ptr %21, i32 0, i32 0
  %23 = load i32, ptr %22, align 8, !tbaa !45
  %24 = mul nsw i32 2, %23
  call void @Vec_PtrGrow(ptr noundef %20, i32 noundef %24)
  br label %25

25:                                               ; preds = %19, %17
  br label %26

26:                                               ; preds = %25, %2
  %27 = load ptr, ptr %4, align 8, !tbaa !44
  %28 = load ptr, ptr %3, align 8, !tbaa !22
  %29 = getelementptr inbounds nuw %struct.Vec_Ptr_t_, ptr %28, i32 0, i32 2
  %30 = load ptr, ptr %29, align 8, !tbaa !46
  %31 = load ptr, ptr %3, align 8, !tbaa !22
  %32 = getelementptr inbounds nuw %struct.Vec_Ptr_t_, ptr %31, i32 0, i32 1
  %33 = load i32, ptr %32, align 4, !tbaa !24
  %34 = add nsw i32 %33, 1
  store i32 %34, ptr %32, align 4, !tbaa !24
  %35 = sext i32 %33 to i64
  %36 = getelementptr inbounds ptr, ptr %30, i64 %35
  store ptr %27, ptr %36, align 8, !tbaa !44
  ret void
}

; Function Attrs: inlinehint nounwind uwtable
define internal i32 @Vec_PtrSize(ptr noundef %0) #1 {
  %2 = alloca ptr, align 8
  store ptr %0, ptr %2, align 8, !tbaa !22
  %3 = load ptr, ptr %2, align 8, !tbaa !22
  %4 = getelementptr inbounds nuw %struct.Vec_Ptr_t_, ptr %3, i32 0, i32 1
  %5 = load i32, ptr %4, align 4, !tbaa !24
  ret i32 %5
}

; Function Attrs: inlinehint nounwind uwtable
define internal void @If_DsdObjClean(ptr noundef %0) #1 {
  %2 = alloca ptr, align 8
  store ptr %0, ptr %2, align 8, !tbaa !40
  %3 = load ptr, ptr %2, align 8, !tbaa !40
  call void @llvm.memset.p0.i64(ptr align 4 %3, i8 0, i64 8, i1 false)
  ret void
}

; Function Attrs: inlinehint nounwind uwtable
define internal i32 @If_DsdObjWordNum(i32 noundef %0) #1 {
  %2 = alloca i32, align 4
  store i32 %0, ptr %2, align 4, !tbaa !27
  %3 = load i32, ptr %2, align 4, !tbaa !27
  %4 = sdiv i32 %3, 2
  %5 = sext i32 %4 to i64
  %6 = add i64 1, %5
  %7 = load i32, ptr %2, align 4, !tbaa !27
  %8 = and i32 %7, 1
  %9 = icmp sgt i32 %8, 0
  %10 = zext i1 %9 to i32
  %11 = sext i32 %10 to i64
  %12 = add i64 %6, %11
  %13 = trunc i64 %12 to i32
  ret i32 %13
}

; Function Attrs: nounwind uwtable
define ptr @If_DsdObjAlloc(ptr noundef %0, i32 noundef %1, i32 noundef %2) #0 {
  %4 = alloca ptr, align 8
  %5 = alloca i32, align 4
  %6 = alloca i32, align 4
  %7 = alloca i32, align 4
  %8 = alloca ptr, align 8
  store ptr %0, ptr %4, align 8, !tbaa !3
  store i32 %1, ptr %5, align 4, !tbaa !27
  store i32 %2, ptr %6, align 4, !tbaa !27
  call void @llvm.lifetime.start.p0(i64 4, ptr %7) #15
  %9 = load i32, ptr %6, align 4, !tbaa !27
  %10 = call i32 @If_DsdObjWordNum(i32 noundef %9)
  store i32 %10, ptr %7, align 4, !tbaa !27
  call void @llvm.lifetime.start.p0(i64 8, ptr %8) #15
  %11 = load ptr, ptr %4, align 8, !tbaa !3
  %12 = getelementptr inbounds nuw %struct.If_DsdMan_t_, ptr %11, i32 0, i32 6
  %13 = load ptr, ptr %12, align 8, !tbaa !39
  %14 = load i32, ptr %7, align 4, !tbaa !27
  %15 = sext i32 %14 to i64
  %16 = mul i64 8, %15
  %17 = trunc i64 %16 to i32
  %18 = call ptr @Mem_FlexEntryFetch(ptr noundef %13, i32 noundef %17)
  store ptr %18, ptr %8, align 8, !tbaa !40
  %19 = load ptr, ptr %8, align 8, !tbaa !40
  call void @If_DsdObjClean(ptr noundef %19)
  %20 = load i32, ptr %5, align 4, !tbaa !27
  %21 = load ptr, ptr %8, align 8, !tbaa !40
  %22 = getelementptr inbounds nuw %struct.If_DsdObj_t_, ptr %21, i32 0, i32 1
  %23 = load i32, ptr %22, align 4
  %24 = and i32 %20, 7
  %25 = and i32 %23, -8
  %26 = or i32 %25, %24
  store i32 %26, ptr %22, align 4
  %27 = load i32, ptr %6, align 4, !tbaa !27
  %28 = load ptr, ptr %8, align 8, !tbaa !40
  %29 = getelementptr inbounds nuw %struct.If_DsdObj_t_, ptr %28, i32 0, i32 1
  %30 = load i32, ptr %29, align 4
  %31 = and i32 %27, 31
  %32 = shl i32 %31, 27
  %33 = and i32 %30, 134217727
  %34 = or i32 %33, %32
  store i32 %34, ptr %29, align 4
  %35 = load ptr, ptr %4, align 8, !tbaa !3
  %36 = getelementptr inbounds nuw %struct.If_DsdMan_t_, ptr %35, i32 0, i32 7
  %37 = call i32 @Vec_PtrSize(ptr noundef %36)
  %38 = load ptr, ptr %8, align 8, !tbaa !40
  %39 = getelementptr inbounds nuw %struct.If_DsdObj_t_, ptr %38, i32 0, i32 0
  store i32 %37, ptr %39, align 4, !tbaa !42
  %40 = load ptr, ptr %4, align 8, !tbaa !3
  %41 = getelementptr inbounds nuw %struct.If_DsdMan_t_, ptr %40, i32 0, i32 25
  %42 = load i32, ptr %41, align 4, !tbaa !31
  %43 = load ptr, ptr %8, align 8, !tbaa !40
  %44 = getelementptr inbounds nuw %struct.If_DsdObj_t_, ptr %43, i32 0, i32 1
  %45 = load i32, ptr %44, align 4
  %46 = and i32 %42, 1
  %47 = shl i32 %46, 8
  %48 = and i32 %45, -257
  %49 = or i32 %48, %47
  store i32 %49, ptr %44, align 4
  %50 = load ptr, ptr %8, align 8, !tbaa !40
  %51 = getelementptr inbounds nuw %struct.If_DsdObj_t_, ptr %50, i32 0, i32 1
  %52 = load i32, ptr %51, align 4
  %53 = and i32 %52, -134217217
  %54 = or i32 %53, 0
  store i32 %54, ptr %51, align 4
  %55 = load ptr, ptr %4, align 8, !tbaa !3
  %56 = getelementptr inbounds nuw %struct.If_DsdMan_t_, ptr %55, i32 0, i32 7
  %57 = load ptr, ptr %8, align 8, !tbaa !40
  call void @Vec_PtrPush(ptr noundef %56, ptr noundef %57)
  %58 = load ptr, ptr %4, align 8, !tbaa !3
  %59 = getelementptr inbounds nuw %struct.If_DsdMan_t_, ptr %58, i32 0, i32 8
  call void @Vec_IntPush(ptr noundef %59, i32 noundef 0)
  %60 = load ptr, ptr %4, align 8, !tbaa !3
  %61 = getelementptr inbounds nuw %struct.If_DsdMan_t_, ptr %60, i32 0, i32 9
  call void @Vec_IntPush(ptr noundef %61, i32 noundef -1)
  %62 = load ptr, ptr %8, align 8, !tbaa !40
  call void @llvm.lifetime.end.p0(i64 8, ptr %8) #15
  call void @llvm.lifetime.end.p0(i64 4, ptr %7) #15
  ret ptr %62
}