; Function Attrs: nounwind uwtable
define noundef ptr @If_DsdObjAlloc(ptr noundef captures(none) %0, i32 noundef %1, i32 noundef %2) local_unnamed_addr #4 {
  %4 = sdiv i32 %2, 2
  %narrow.i = add nsw i32 %4, 1
  %5 = and i32 %2, 1
  %6 = add nsw i32 %narrow.i, %5
  %7 = getelementptr inbounds nuw i8, ptr %0, i64 32
  %8 = load ptr, ptr %7, align 8, !tbaa !33
  %9 = shl i32 %6, 3
  %10 = tail call ptr @Mem_FlexEntryFetch(ptr noundef %8, i32 noundef %9) #39
  store i64 0, ptr %10, align 4
  %11 = getelementptr inbounds nuw i8, ptr %10, i64 4
  %12 = and i32 %1, 7
  %13 = shl i32 %2, 27
  %14 = or disjoint i32 %12, %13
  store i32 %14, ptr %11, align 4
  %15 = getelementptr inbounds nuw i8, ptr %0, i64 40
  %16 = getelementptr i8, ptr %0, i64 44
  %.val = load i32, ptr %16, align 4, !tbaa !20
  store i32 %.val, ptr %10, align 4, !tbaa !34
  %17 = getelementptr inbounds nuw i8, ptr %0, i64 676
  %18 = load i32, ptr %17, align 4, !tbaa !26
  %19 = shl i32 %18, 8
  %20 = and i32 %19, 256
  %21 = or disjoint i32 %20, %14
  store i32 %21, ptr %11, align 4
  %22 = load i32, ptr %16, align 4, !tbaa !20
  %23 = load i32, ptr %15, align 8, !tbaa !36
  %24 = icmp eq i32 %22, %23
  br i1 %24, label %25, label %.Vec_PtrGrow.exit11_crit_edge.i

.Vec_PtrGrow.exit11_crit_edge.i:                  ; preds = %3
  %.phi.trans.insert.i = getelementptr inbounds nuw i8, ptr %0, i64 48
  %.pre.i = load ptr, ptr %.phi.trans.insert.i, align 8, !tbaa !23
  br label %Vec_PtrPush.exit

25:                                               ; preds = %3
  %26 = icmp slt i32 %22, 16
  br i1 %26, label %27, label %35

27:                                               ; preds = %25
  %28 = getelementptr inbounds nuw i8, ptr %0, i64 48
  %29 = load ptr, ptr %28, align 8, !tbaa !23
  %.not9.i.i = icmp eq ptr %29, null
  br i1 %.not9.i.i, label %32, label %30

30:                                               ; preds = %27
  %31 = tail call dereferenceable_or_null(128) ptr @realloc(ptr noundef nonnull %29, i64 noundef 128) #40
  br label %Vec_PtrGrow.exit.i

32:                                               ; preds = %27
  %33 = tail call noalias dereferenceable_or_null(128) ptr @malloc(i64 noundef 128) #41
  br label %Vec_PtrGrow.exit.i

Vec_PtrGrow.exit.i:                               ; preds = %32, %30
  %34 = phi ptr [ %31, %30 ], [ %33, %32 ]
  store ptr %34, ptr %28, align 8, !tbaa !23
  store i32 16, ptr %15, align 8, !tbaa !36
  br label %Vec_PtrPush.exit

35:                                               ; preds = %25
  %36 = shl nuw nsw i32 %22, 1
  %37 = getelementptr inbounds nuw i8, ptr %0, i64 48
  %38 = load ptr, ptr %37, align 8, !tbaa !23
  %.not9.i10.i = icmp eq ptr %38, null
  %39 = zext nneg i32 %36 to i64
  %40 = shl nuw nsw i64 %39, 3
  br i1 %.not9.i10.i, label %43, label %41

41:                                               ; preds = %35
  %42 = tail call ptr @realloc(ptr noundef nonnull %38, i64 noundef %40) #40
  br label %45

43:                                               ; preds = %35
  %44 = tail call noalias ptr @malloc(i64 noundef %40) #41
  br label %45

45:                                               ; preds = %43, %41
  %46 = phi ptr [ %42, %41 ], [ %44, %43 ]
  store ptr %46, ptr %37, align 8, !tbaa !23
  store i32 %36, ptr %15, align 8, !tbaa !36
  br label %Vec_PtrPush.exit

Vec_PtrPush.exit:                                 ; preds = %.Vec_PtrGrow.exit11_crit_edge.i, %Vec_PtrGrow.exit.i, %45
  %47 = phi ptr [ %.pre.i, %.Vec_PtrGrow.exit11_crit_edge.i ], [ %46, %45 ], [ %34, %Vec_PtrGrow.exit.i ]
  %48 = load i32, ptr %16, align 4, !tbaa !20
  %49 = add nsw i32 %48, 1
  store i32 %49, ptr %16, align 4, !tbaa !20
  %50 = sext i32 %48 to i64
  %51 = getelementptr inbounds ptr, ptr %47, i64 %50
  store ptr %10, ptr %51, align 8, !tbaa !24
  %52 = getelementptr inbounds nuw i8, ptr %0, i64 56
  %53 = getelementptr inbounds nuw i8, ptr %0, i64 60
  %54 = load i32, ptr %53, align 4, !tbaa !37
  %55 = load i32, ptr %52, align 8, !tbaa !38
  %56 = icmp eq i32 %54, %55
  br i1 %56, label %57, label %.Vec_IntGrow.exit10_crit_edge.i

.Vec_IntGrow.exit10_crit_edge.i:                  ; preds = %Vec_PtrPush.exit
  %.phi.trans.insert.i17 = getelementptr inbounds nuw i8, ptr %0, i64 64
  %.pre.i18 = load ptr, ptr %.phi.trans.insert.i17, align 8, !tbaa !39
  br label %Vec_IntPush.exit

57:                                               ; preds = %Vec_PtrPush.exit
  %58 = icmp slt i32 %54, 16
  br i1 %58, label %59, label %67

59:                                               ; preds = %57
  %60 = getelementptr inbounds nuw i8, ptr %0, i64 64
  %61 = load ptr, ptr %60, align 8, !tbaa !39
  %.not9.i.i19 = icmp eq ptr %61, null
  br i1 %.not9.i.i19, label %64, label %62

62:                                               ; preds = %59
  %63 = tail call dereferenceable_or_null(64) ptr @realloc(ptr noundef nonnull %61, i64 noundef 64) #40
  br label %Vec_IntGrow.exit.i

64:                                               ; preds = %59
  %65 = tail call noalias dereferenceable_or_null(64) ptr @malloc(i64 noundef 64) #41
  br label %Vec_IntGrow.exit.i

Vec_IntGrow.exit.i:                               ; preds = %64, %62
  %66 = phi ptr [ %63, %62 ], [ %65, %64 ]
  store ptr %66, ptr %60, align 8, !tbaa !39
  store i32 16, ptr %52, align 8, !tbaa !38
  br label %Vec_IntPush.exit

67:                                               ; preds = %57
  %68 = shl nuw nsw i32 %54, 1
  %69 = getelementptr inbounds nuw i8, ptr %0, i64 64
  %70 = load ptr, ptr %69, align 8, !tbaa !39
  %.not9.i9.i = icmp eq ptr %70, null
  %71 = zext nneg i32 %68 to i64
  %72 = shl nuw nsw i64 %71, 2
  br i1 %.not9.i9.i, label %75, label %73

73:                                               ; preds = %67
  %74 = tail call ptr @realloc(ptr noundef nonnull %70, i64 noundef %72) #40
  br label %77

75:                                               ; preds = %67
  %76 = tail call noalias ptr @malloc(i64 noundef %72) #41
  br label %77

77:                                               ; preds = %75, %73
  %78 = phi ptr [ %74, %73 ], [ %76, %75 ]
  store ptr %78, ptr %69, align 8, !tbaa !39
  store i32 %68, ptr %52, align 8, !tbaa !38
  br label %Vec_IntPush.exit

Vec_IntPush.exit:                                 ; preds = %.Vec_IntGrow.exit10_crit_edge.i, %Vec_IntGrow.exit.i, %77
  %79 = phi ptr [ %.pre.i18, %.Vec_IntGrow.exit10_crit_edge.i ], [ %78, %77 ], [ %66, %Vec_IntGrow.exit.i ]
  %80 = load i32, ptr %53, align 4, !tbaa !37
  %81 = add nsw i32 %80, 1
  store i32 %81, ptr %53, align 4, !tbaa !37
  %82 = sext i32 %80 to i64
  %83 = getelementptr inbounds i32, ptr %79, i64 %82
  store i32 0, ptr %83, align 4, !tbaa !40
  %84 = getelementptr inbounds nuw i8, ptr %0, i64 72
  %85 = getelementptr inbounds nuw i8, ptr %0, i64 76
  %86 = load i32, ptr %85, align 4, !tbaa !37
  %87 = load i32, ptr %84, align 8, !tbaa !38
  %88 = icmp eq i32 %86, %87
  br i1 %88, label %89, label %.Vec_IntGrow.exit10_crit_edge.i20

.Vec_IntGrow.exit10_crit_edge.i20:                ; preds = %Vec_IntPush.exit
  %.phi.trans.insert.i21 = getelementptr inbounds nuw i8, ptr %0, i64 80
  %.pre.i22 = load ptr, ptr %.phi.trans.insert.i21, align 8, !tbaa !39
  br label %Vec_IntPush.exit26

89:                                               ; preds = %Vec_IntPush.exit
  %90 = icmp slt i32 %86, 16
  br i1 %90, label %91, label %99

91:                                               ; preds = %89
  %92 = getelementptr inbounds nuw i8, ptr %0, i64 80
  %93 = load ptr, ptr %92, align 8, !tbaa !39
  %.not9.i.i24 = icmp eq ptr %93, null
  br i1 %.not9.i.i24, label %96, label %94

94:                                               ; preds = %91
  %95 = tail call dereferenceable_or_null(64) ptr @realloc(ptr noundef nonnull %93, i64 noundef 64) #40
  br label %Vec_IntGrow.exit.i25

96:                                               ; preds = %91
  %97 = tail call noalias dereferenceable_or_null(64) ptr @malloc(i64 noundef 64) #41
  br label %Vec_IntGrow.exit.i25

Vec_IntGrow.exit.i25:                             ; preds = %96, %94
  %98 = phi ptr [ %95, %94 ], [ %97, %96 ]
  store ptr %98, ptr %92, align 8, !tbaa !39
  store i32 16, ptr %84, align 8, !tbaa !38
  br label %Vec_IntPush.exit26

99:                                               ; preds = %89
  %100 = shl nuw nsw i32 %86, 1
  %101 = getelementptr inbounds nuw i8, ptr %0, i64 80
  %102 = load ptr, ptr %101, align 8, !tbaa !39
  %.not9.i9.i23 = icmp eq ptr %102, null
  %103 = zext nneg i32 %100 to i64
  %104 = shl nuw nsw i64 %103, 2
  br i1 %.not9.i9.i23, label %107, label %105

105:                                              ; preds = %99
  %106 = tail call ptr @realloc(ptr noundef nonnull %102, i64 noundef %104) #40
  br label %109

107:                                              ; preds = %99
  %108 = tail call noalias ptr @malloc(i64 noundef %104) #41
  br label %109

109:                                              ; preds = %107, %105
  %110 = phi ptr [ %106, %105 ], [ %108, %107 ]
  store ptr %110, ptr %101, align 8, !tbaa !39
  store i32 %100, ptr %84, align 8, !tbaa !38
  br label %Vec_IntPush.exit26

Vec_IntPush.exit26:                               ; preds = %.Vec_IntGrow.exit10_crit_edge.i20, %Vec_IntGrow.exit.i25, %109
  %111 = phi ptr [ %.pre.i22, %.Vec_IntGrow.exit10_crit_edge.i20 ], [ %110, %109 ], [ %98, %Vec_IntGrow.exit.i25 ]
  %112 = load i32, ptr %85, align 4, !tbaa !37
  %113 = add nsw i32 %112, 1
  store i32 %113, ptr %85, align 4, !tbaa !37
  %114 = sext i32 %112 to i64
  %115 = getelementptr inbounds i32, ptr %111, i64 %114
  store i32 -1, ptr %115, align 4, !tbaa !40
  ret ptr %10
}